target datalayout = "e-m:e-p270:32:32-p271:32:32-p272:64:64-i64:64-i128:128-f80:128-n8:16:32:64-S128"
target triple = "x86_64-pc-linux-gnu"

%struct.SDL_VideoDevice = type { ptr, ptr, ptr, ptr, ptr, ptr, ptr, ptr, ptr, ptr, ptr, ptr, ptr, ptr, ptr, ptr, ptr, ptr, ptr, ptr, ptr, ptr, ptr, ptr, ptr, ptr, ptr, ptr, ptr, ptr, ptr, ptr, ptr, ptr, ptr, ptr, ptr, ptr, ptr, ptr, ptr, ptr, ptr, ptr, ptr, ptr, ptr, ptr, ptr, ptr, ptr, ptr, ptr, ptr, ptr, ptr, ptr, ptr, ptr, ptr, ptr, ptr, ptr, ptr, ptr, ptr, ptr, ptr, ptr, ptr, ptr, ptr, ptr, ptr, ptr, ptr, ptr, ptr, ptr, ptr, ptr, ptr, ptr, ptr, ptr, ptr, ptr, ptr, ptr, ptr, ptr, ptr, ptr, ptr, ptr, ptr, ptr, i64, i8, i8, i8, ptr, i32, ptr, %struct.SDL_Rect, ptr, ptr, i32, ptr, ptr, ptr, ptr, i64, ptr, i8, i32, i32, %struct.anon, ptr, ptr, ptr, ptr, ptr, ptr, %struct.SDL_AtomicInt, %struct.SDL_AtomicInt, i8, %struct.anon.0, ptr, ptr, ptr, ptr, ptr }
%struct.SDL_Rect = type { i32, i32, i32, i32 }
%struct.anon = type { i32, i32, i32, i32, i32, i32, i32, i32, i32, i32, i32, i32, i32, i32, i32, i32, i32, i32, i32, i32, i32, i32, i32, i32, i32, i32, i32, i32, i32, [256 x i8], ptr }
%struct.SDL_AtomicInt = type { i32 }
%struct.anon.0 = type { ptr, ptr, i32, [256 x i8], ptr }
%struct.SDL_VideoData = type { ptr, ptr, i32, ptr, i64, i32, ptr, i32, i64, i64, %struct.X11_ClipboardData, %struct.X11_ClipboardData, ptr, i64, %struct.X11_SettingsData, i8, %struct.anon.1, [256 x i32], i8, i8, i8, i64, i8, %struct.SDL_Point, i32, ptr, i32, i8, i32, %struct.anon.2, i8, i64, ptr, ptr, i8, i8, i8 }
%struct.X11_ClipboardData = type { ptr, ptr, ptr, i64, i32 }
%struct.X11_SettingsData = type { ptr }
%struct.anon.1 = type { i64, i64, i64, i64, i64, i64, i64, i64, i64, i64, i64, i64, i64, i64, i64, i64, i64, i64, i64, i64, i64, i64, i64, i64, i64, i64, i64, i64, i64, i64, i64, i64, i64, i64, i64, i64, i64, i64, i64, i64, i64, i64, i64, i64, i64, i64, i64, i64, i64, i64, i64, i64, i64 }
%struct.SDL_Point = type { i32, i32 }
%struct.anon.2 = type { ptr, i32, i32, i32, i16, i32, i32 }
%struct.XWindowAttributes = type { i32, i32, i32, i32, i32, i32, ptr, i64, i32, i32, i32, i32, i64, i64, i32, i64, i32, i32, i64, i64, i64, i32, ptr }
%struct.SDL_Window = type { i32, ptr, ptr, i32, i32, i32, i32, i32, i32, i32, i32, float, float, i32, i32, i64, i64, float, i8, i8, i32, i32, %struct.SDL_Rect, %struct.SDL_Rect, %struct.SDL_Rect, i8, i8, i8, %struct.SDL_DisplayMode, %struct.SDL_DisplayMode, %struct.SDL_HDROutputProperties, float, ptr, i8, i8, i8, i8, i8, i8, i8, i8, i8, i32, i32, i32, i32, %struct.SDL_Rect, i32, i8, %struct.SDL_Rect, i32, %struct.SDL_Rect, ptr, ptr, i32, float, i32, i32, ptr, ptr, ptr, ptr, ptr, ptr, ptr, ptr, ptr }
%struct.SDL_DisplayMode = type { i32, i32, i32, i32, float, float, i32, i32, ptr }
%struct.SDL_HDROutputProperties = type { float, float }

@X11_XGetWindowProperty = external global ptr, align 8
@X11_XGetWindowAttributes = external global ptr, align 8
@X11_XFree = external global ptr, align 8

; Function Attrs: nounwind uwtable
define hidden i32 @X11_GetNetWMState(ptr noundef %0, ptr noundef %1, i64 noundef %2) #0 {
  %4 = alloca ptr, align 8
  %5 = alloca ptr, align 8
  %6 = alloca i64, align 8
  %7 = alloca ptr, align 8
  %8 = alloca ptr, align 8
  %9 = alloca i64, align 8
  %10 = alloca i64, align 8
  %11 = alloca i64, align 8
  %12 = alloca i64, align 8
  %13 = alloca i64, align 8
  %14 = alloca i64, align 8
  %15 = alloca i64, align 8
  %16 = alloca i32, align 4
  %17 = alloca i64, align 8
  %18 = alloca i64, align 8
  %19 = alloca i64, align 8
  %20 = alloca ptr, align 8
  %21 = alloca i64, align 8
  %22 = alloca i64, align 8
  %23 = alloca ptr, align 8
  %24 = alloca i32, align 4
  %25 = alloca i32, align 4
  %26 = alloca %struct.XWindowAttributes, align 8
  store ptr %0, ptr %4, align 8
  store ptr %1, ptr %5, align 8
  store i64 %2, ptr %6, align 8
  call void @llvm.lifetime.start.p0(i64 8, ptr %7) #7
  %27 = load ptr, ptr %4, align 8
  %28 = getelementptr inbounds nuw %struct.SDL_VideoDevice, ptr %27, i32 0, i32 128
  %29 = load ptr, ptr %28, align 8
  store ptr %29, ptr %7, align 8
  call void @llvm.lifetime.start.p0(i64 8, ptr %8) #7
  %30 = load ptr, ptr %7, align 8
  %31 = getelementptr inbounds nuw %struct.SDL_VideoData, ptr %30, i32 0, i32 0
  %32 = load ptr, ptr %31, align 8
  store ptr %32, ptr %8, align 8
  call void @llvm.lifetime.start.p0(i64 8, ptr %9) #7
  %33 = load ptr, ptr %7, align 8
  %34 = getelementptr inbounds nuw %struct.SDL_VideoData, ptr %33, i32 0, i32 16
  %35 = getelementptr inbounds nuw %struct.anon.1, ptr %34, i32 0, i32 5
  %36 = load i64, ptr %35, align 8
  store i64 %36, ptr %9, align 8
  call void @llvm.lifetime.start.p0(i64 8, ptr %10) #7
  %37 = load ptr, ptr %7, align 8
  %38 = getelementptr inbounds nuw %struct.SDL_VideoData, ptr %37, i32 0, i32 16
  %39 = getelementptr inbounds nuw %struct.anon.1, ptr %38, i32 0, i32 6
  %40 = load i64, ptr %39, align 8
  store i64 %40, ptr %10, align 8
  call void @llvm.lifetime.start.p0(i64 8, ptr %11) #7
  %41 = load ptr, ptr %7, align 8
  %42 = getelementptr inbounds nuw %struct.SDL_VideoData, ptr %41, i32 0, i32 16
  %43 = getelementptr inbounds nuw %struct.anon.1, ptr %42, i32 0, i32 7
  %44 = load i64, ptr %43, align 8
  store i64 %44, ptr %11, align 8
  call void @llvm.lifetime.start.p0(i64 8, ptr %12) #7
  %45 = load ptr, ptr %7, align 8
  %46 = getelementptr inbounds nuw %struct.SDL_VideoData, ptr %45, i32 0, i32 16
  %47 = getelementptr inbounds nuw %struct.anon.1, ptr %46, i32 0, i32 8
  %48 = load i64, ptr %47, align 8
  store i64 %48, ptr %12, align 8
  call void @llvm.lifetime.start.p0(i64 8, ptr %13) #7
  %49 = load ptr, ptr %7, align 8
  %50 = getelementptr inbounds nuw %struct.SDL_VideoData, ptr %49, i32 0, i32 16
  %51 = getelementptr inbounds nuw %struct.anon.1, ptr %50, i32 0, i32 9
  %52 = load i64, ptr %51, align 8
  store i64 %52, ptr %13, align 8
  call void @llvm.lifetime.start.p0(i64 8, ptr %14) #7
  %53 = load ptr, ptr %7, align 8
  %54 = getelementptr inbounds nuw %struct.SDL_VideoData, ptr %53, i32 0, i32 16
  %55 = getelementptr inbounds nuw %struct.anon.1, ptr %54, i32 0, i32 10
  %56 = load i64, ptr %55, align 8
  store i64 %56, ptr %14, align 8
  call void @llvm.lifetime.start.p0(i64 8, ptr %15) #7
  call void @llvm.lifetime.start.p0(i64 4, ptr %16) #7
  call void @llvm.lifetime.start.p0(i64 8, ptr %17) #7
  call void @llvm.lifetime.start.p0(i64 8, ptr %18) #7
  call void @llvm.lifetime.start.p0(i64 8, ptr %19) #7
  call void @llvm.lifetime.start.p0(i64 8, ptr %20) #7
  store ptr null, ptr %20, align 8
  call void @llvm.lifetime.start.p0(i64 8, ptr %21) #7
  store i64 1024, ptr %21, align 8
  call void @llvm.lifetime.start.p0(i64 8, ptr %22) #7
  store i64 0, ptr %22, align 8
  %57 = load ptr, ptr @X11_XGetWindowProperty, align 8
  %58 = load ptr, ptr %8, align 8
  %59 = load i64, ptr %6, align 8
  %60 = load i64, ptr %9, align 8
  %61 = load i64, ptr %21, align 8
  %62 = call i32 %57(ptr noundef %58, i64 noundef %59, i64 noundef %60, i64 noundef 0, i64 noundef %61, i32 noundef 0, i64 noundef 4, ptr noundef %15, ptr noundef %16, ptr noundef %18, ptr noundef %19, ptr noundef %20)
  %63 = icmp eq i32 %62, 0
  br i1 %63, label %64, label %180

64:                                               ; preds = %3
  call void @llvm.lifetime.start.p0(i64 8, ptr %23) #7
  %65 = load ptr, ptr %20, align 8
  store ptr %65, ptr %23, align 8
  call void @llvm.lifetime.start.p0(i64 4, ptr %24) #7
  store i32 0, ptr %24, align 4
  call void @llvm.lifetime.start.p0(i64 4, ptr %25) #7
  store i32 0, ptr %25, align 4
  store i64 0, ptr %17, align 8
  br label %66

66:                                               ; preds = %123, %64
  %67 = load i64, ptr %17, align 8
  %68 = load i64, ptr %18, align 8
  %69 = icmp ult i64 %67, %68
  br i1 %69, label %70, label %126

70:                                               ; preds = %66
  %71 = load ptr, ptr %23, align 8
  %72 = load i64, ptr %17, align 8
  %73 = getelementptr inbounds nuw i64, ptr %71, i64 %72
  %74 = load i64, ptr %73, align 8
  %75 = load i64, ptr %10, align 8
  %76 = icmp eq i64 %74, %75
  br i1 %76, label %77, label %80

77:                                               ; preds = %70
  %78 = load i64, ptr %22, align 8
  %79 = or i64 %78, 68
  store i64 %79, ptr %22, align 8
  br label %122

80:                                               ; preds = %70
  %81 = load ptr, ptr %23, align 8
  %82 = load i64, ptr %17, align 8
  %83 = getelementptr inbounds nuw i64, ptr %81, i64 %82
  %84 = load i64, ptr %83, align 8
  %85 = load i64, ptr %11, align 8
  %86 = icmp eq i64 %84, %85
  br i1 %86, label %87, label %90

87:                                               ; preds = %80
  %88 = load i64, ptr %22, align 8
  %89 = or i64 %88, 512
  store i64 %89, ptr %22, align 8
  br label %121

90:                                               ; preds = %80
  %91 = load ptr, ptr %23, align 8
  %92 = load i64, ptr %17, align 8
  %93 = getelementptr inbounds nuw i64, ptr %91, i64 %92
  %94 = load i64, ptr %93, align 8
  %95 = load i64, ptr %12, align 8
  %96 = icmp eq i64 %94, %95
  br i1 %96, label %97, label %100

97:                                               ; preds = %90
  %98 = load i32, ptr %24, align 4
  %99 = or i32 %98, 1
  store i32 %99, ptr %24, align 4
  br label %120

100:                                              ; preds = %90
  %101 = load ptr, ptr %23, align 8
  %102 = load i64, ptr %17, align 8
  %103 = getelementptr inbounds nuw i64, ptr %101, i64 %102
  %104 = load i64, ptr %103, align 8
  %105 = load i64, ptr %13, align 8
  %106 = icmp eq i64 %104, %105
  br i1 %106, label %107, label %110

107:                                              ; preds = %100
  %108 = load i32, ptr %24, align 4
  %109 = or i32 %108, 2
  store i32 %109, ptr %24, align 4
  br label %119

110:                                              ; preds = %100
  %111 = load ptr, ptr %23, align 8
  %112 = load i64, ptr %17, align 8
  %113 = getelementptr inbounds nuw i64, ptr %111, i64 %112
  %114 = load i64, ptr %113, align 8
  %115 = load i64, ptr %14, align 8
  %116 = icmp eq i64 %114, %115
  br i1 %116, label %117, label %118

117:                                              ; preds = %110
  store i32 1, ptr %25, align 4
  br label %118

118:                                              ; preds = %117, %110
  br label %119

119:                                              ; preds = %118, %107
  br label %120

120:                                              ; preds = %119, %97
  br label %121

121:                                              ; preds = %120, %87
  br label %122

122:                                              ; preds = %121, %77
  br label %123

123:                                              ; preds = %122
  %124 = load i64, ptr %17, align 8
  %125 = add i64 %124, 1
  store i64 %125, ptr %17, align 8
  br label %66, !llvm.loop !3

126:                                              ; preds = %66
  %127 = load i32, ptr %25, align 4
  %128 = icmp eq i32 %127, 1
  br i1 %128, label %129, label %146

129:                                              ; preds = %126
  %130 = load ptr, ptr %5, align 8
  %131 = getelementptr inbounds nuw %struct.SDL_Window, ptr %130, i32 0, i32 15
  %132 = load i64, ptr %131, align 8
  %133 = and i64 %132, 1
  %134 = icmp ne i64 %133, 0
  br i1 %134, label %135, label %142

135:                                              ; preds = %129
  %136 = load ptr, ptr %5, align 8
  %137 = getelementptr inbounds nuw %struct.SDL_Window, ptr %136, i32 0, i32 15
  %138 = load i64, ptr %137, align 8
  %139 = and i64 %138, 1
  %140 = load i64, ptr %22, align 8
  %141 = or i64 %140, %139
  store i64 %141, ptr %22, align 8
  br label %145

142:                                              ; preds = %129
  %143 = load i64, ptr %22, align 8
  %144 = or i64 %143, 1
  store i64 %144, ptr %22, align 8
  br label %145

145:                                              ; preds = %142, %135
  br label %146

146:                                              ; preds = %145, %126
  %147 = load i32, ptr %24, align 4
  %148 = icmp eq i32 %147, 3
  br i1 %148, label %149, label %163

149:                                              ; preds = %146
  %150 = load i32, ptr %25, align 4
  %151 = icmp ne i32 %150, 0
  br i1 %151, label %152, label %159

152:                                              ; preds = %149
  %153 = load ptr, ptr %5, align 8
  %154 = getelementptr inbounds nuw %struct.SDL_Window, ptr %153, i32 0, i32 15
  %155 = load i64, ptr %154, align 8
  %156 = and i64 %155, 128
  %157 = load i64, ptr %22, align 8
  %158 = or i64 %157, %156
  store i64 %158, ptr %22, align 8
  br label %162

159:                                              ; preds = %149
  %160 = load i64, ptr %22, align 8
  %161 = or i64 %160, 128
  store i64 %161, ptr %22, align 8
  br label %162

162:                                              ; preds = %159, %152
  br label %163

163:                                              ; preds = %162, %146
  call void @llvm.lifetime.start.p0(i64 136, ptr %26) #7
  call void @llvm.memset.p0.i64(ptr align 8 %26, i8 0, i64 136, i1 false)
  %164 = load ptr, ptr @X11_XGetWindowAttributes, align 8
  %165 = load ptr, ptr %7, align 8
  %166 = getelementptr inbounds nuw %struct.SDL_VideoData, ptr %165, i32 0, i32 0
  %167 = load ptr, ptr %166, align 8
  %168 = load i64, ptr %6, align 8
  %169 = call i32 %164(ptr noundef %167, i64 noundef %168, ptr noundef %26)
  %170 = getelementptr inbounds nuw %struct.XWindowAttributes, ptr %26, i32 0, i32 17
  %171 = load i32, ptr %170, align 4
  %172 = icmp eq i32 %171, 0
  br i1 %172, label %173, label %176

173:                                              ; preds = %163
  %174 = load i64, ptr %22, align 8
  %175 = or i64 %174, 8
  store i64 %175, ptr %22, align 8
  br label %176

176:                                              ; preds = %173, %163
  call void @llvm.lifetime.end.p0(i64 136, ptr %26) #7
  %177 = load ptr, ptr @X11_XFree, align 8
  %178 = load ptr, ptr %20, align 8
  %179 = call i32 %177(ptr noundef %178)
  call void @llvm.lifetime.end.p0(i64 4, ptr %25) #7
  call void @llvm.lifetime.end.p0(i64 4, ptr %24) #7
  call void @llvm.lifetime.end.p0(i64 8, ptr %23) #7
  br label %180

180:                                              ; preds = %176, %3
  %181 = load i64, ptr %22, align 8
  %182 = trunc i64 %181 to i32
  call void @llvm.lifetime.end.p0(i64 8, ptr %22) #7
  call void @llvm.lifetime.end.p0(i64 8, ptr %21) #7
  call void @llvm.lifetime.end.p0(i64 8, ptr %20) #7
  call void @llvm.lifetime.end.p0(i64 8, ptr %19) #7
  call void @llvm.lifetime.end.p0(i64 8, ptr %18) #7
  call void @llvm.lifetime.end.p0(i64 8, ptr %17) #7
  call void @llvm.lifetime.end.p0(i64 4, ptr %16) #7
  call void @llvm.lifetime.end.p0(i64 8, ptr %15) #7
  call void @llvm.lifetime.end.p0(i64 8, ptr %14) #7
  call void @llvm.lifetime.end.p0(i64 8, ptr %13) #7
  call void @llvm.lifetime.end.p0(i64 8, ptr %12) #7
  call void @llvm.lifetime.end.p0(i64 8, ptr %11) #7
  call void @llvm.lifetime.end.p0(i64 8, ptr %10) #7
  call void @llvm.lifetime.end.p0(i64 8, ptr %9) #7
  call void @llvm.lifetime.end.p0(i64 8, ptr %8) #7
  call void @llvm.lifetime.end.p0(i64 8, ptr %7) #7
  ret i32 %182
}