; Function Attrs: nounwind uwtable
define hidden i32 @X11_GetNetWMState(ptr noundef readonly captures(none) %0, ptr noundef readonly captures(none) %1, i64 noundef %2) local_unnamed_addr #0 {
  %4 = alloca i64, align 8
  %5 = alloca i32, align 4
  %6 = alloca i64, align 8
  %7 = alloca i64, align 8
  %8 = alloca ptr, align 8
  %9 = alloca %struct.XWindowAttributes, align 8
  %10 = getelementptr inbounds nuw i8, ptr %0, i64 1656
  %11 = load ptr, ptr %10, align 8
  %12 = load ptr, ptr %11, align 8
  %13 = getelementptr inbounds nuw i8, ptr %11, i64 232
  %14 = load i64, ptr %13, align 8
  %15 = getelementptr inbounds nuw i8, ptr %11, i64 240
  %16 = load i64, ptr %15, align 8
  %17 = getelementptr inbounds nuw i8, ptr %11, i64 248
  %18 = load i64, ptr %17, align 8
  %19 = getelementptr inbounds nuw i8, ptr %11, i64 256
  %20 = load i64, ptr %19, align 8
  %21 = getelementptr inbounds nuw i8, ptr %11, i64 264
  %22 = load i64, ptr %21, align 8
  %23 = getelementptr inbounds nuw i8, ptr %11, i64 272
  %24 = load i64, ptr %23, align 8
  call void @llvm.lifetime.start.p0(i64 8, ptr nonnull %4) #12
  call void @llvm.lifetime.start.p0(i64 4, ptr nonnull %5) #12
  call void @llvm.lifetime.start.p0(i64 8, ptr nonnull %6) #12
  call void @llvm.lifetime.start.p0(i64 8, ptr nonnull %7) #12
  call void @llvm.lifetime.start.p0(i64 8, ptr nonnull %8) #12
  store ptr null, ptr %8, align 8
  %25 = load ptr, ptr @X11_XGetWindowProperty, align 8
  %26 = call i32 %25(ptr noundef %12, i64 noundef %2, i64 noundef %14, i64 noundef 0, i64 noundef 1024, i32 noundef 0, i64 noundef 4, ptr noundef nonnull %4, ptr noundef nonnull %5, ptr noundef nonnull %6, ptr noundef nonnull %7, ptr noundef nonnull %8) #12
  %27 = icmp eq i32 %26, 0
  br i1 %27, label %28, label %74

28:                                               ; preds = %3
  %29 = load ptr, ptr %8, align 8
  %30 = load i64, ptr %6, align 8
  %.not = icmp eq i64 %30, 0
  br i1 %.not, label %._crit_edge.thread, label %.lr.ph

.lr.ph:                                           ; preds = %28, %50
  %.058 = phi i32 [ %.1, %50 ], [ 0, %28 ]
  %.04657 = phi i32 [ %.147, %50 ], [ 0, %28 ]
  %.04856 = phi i64 [ %51, %50 ], [ 0, %28 ]
  %.15055 = phi i64 [ %.2, %50 ], [ 0, %28 ]
  %31 = getelementptr inbounds nuw i64, ptr %29, i64 %.04856
  %32 = load i64, ptr %31, align 8
  %33 = icmp eq i64 %32, %16
  br i1 %33, label %34, label %36

34:                                               ; preds = %.lr.ph
  %35 = or i64 %.15055, 68
  br label %50

36:                                               ; preds = %.lr.ph
  %37 = icmp eq i64 %32, %18
  br i1 %37, label %38, label %40

38:                                               ; preds = %36
  %39 = or i64 %.15055, 512
  br label %50

40:                                               ; preds = %36
  %41 = icmp eq i64 %32, %20
  br i1 %41, label %42, label %44

42:                                               ; preds = %40
  %43 = or i32 %.04657, 1
  br label %50

44:                                               ; preds = %40
  %45 = icmp eq i64 %32, %22
  br i1 %45, label %46, label %48

46:                                               ; preds = %44
  %47 = or i32 %.04657, 2
  br label %50

48:                                               ; preds = %44
  %49 = icmp eq i64 %32, %24
  %spec.select = select i1 %49, i32 1, i32 %.058
  br label %50

50:                                               ; preds = %48, %34, %42, %46, %38
  %.2 = phi i64 [ %35, %34 ], [ %39, %38 ], [ %.15055, %42 ], [ %.15055, %46 ], [ %.15055, %48 ]
  %.147 = phi i32 [ %.04657, %34 ], [ %.04657, %38 ], [ %43, %42 ], [ %47, %46 ], [ %.04657, %48 ]
  %.1 = phi i32 [ %.058, %34 ], [ %.058, %38 ], [ %.058, %42 ], [ %.058, %46 ], [ %spec.select, %48 ]
  %51 = add nuw i64 %.04856, 1
  %exitcond.not = icmp eq i64 %51, %30
  br i1 %exitcond.not, label %._crit_edge, label %.lr.ph, !llvm.loop !3

._crit_edge:                                      ; preds = %50
  %52 = icmp eq i32 %.147, 3
  %53 = icmp eq i32 %.1, 1
  %54 = zext i1 %53 to i64
  %.3 = or i64 %.2, %54
  br i1 %52, label %55, label %._crit_edge.thread

55:                                               ; preds = %._crit_edge
  %.not53 = icmp eq i32 %.1, 0
  br i1 %.not53, label %61, label %56

56:                                               ; preds = %55
  %57 = getelementptr inbounds nuw i8, ptr %1, i64 72
  %58 = load i64, ptr %57, align 8
  %59 = and i64 %58, 128
  %60 = or i64 %59, %.3
  br label %._crit_edge.thread

61:                                               ; preds = %55
  %62 = or i64 %.2, 128
  br label %._crit_edge.thread

._crit_edge.thread:                               ; preds = %28, %56, %61, %._crit_edge
  %.4 = phi i64 [ %60, %56 ], [ %62, %61 ], [ %.3, %._crit_edge ], [ 0, %28 ]
  call void @llvm.lifetime.start.p0(i64 136, ptr nonnull %9) #12
  call void @llvm.memset.p0.i64(ptr noundef nonnull align 8 dereferenceable(136) %9, i8 0, i64 136, i1 false)
  %63 = load ptr, ptr @X11_XGetWindowAttributes, align 8
  %64 = load ptr, ptr %11, align 8
  %65 = call i32 %63(ptr noundef %64, i64 noundef %2, ptr noundef nonnull %9) #12
  %66 = getelementptr inbounds nuw i8, ptr %9, i64 92
  %67 = load i32, ptr %66, align 4
  %68 = icmp eq i32 %67, 0
  %69 = or i64 %.4, 8
  %spec.select54 = select i1 %68, i64 %69, i64 %.4
  call void @llvm.lifetime.end.p0(i64 136, ptr nonnull %9) #12
  %70 = load ptr, ptr @X11_XFree, align 8
  %71 = load ptr, ptr %8, align 8
  %72 = call i32 %70(ptr noundef %71) #12
  %73 = trunc i64 %spec.select54 to i32
  br label %74

74:                                               ; preds = %._crit_edge.thread, %3
  %.049 = phi i32 [ %73, %._crit_edge.thread ], [ 0, %3 ]
  call void @llvm.lifetime.end.p0(i64 8, ptr nonnull %8) #12
  call void @llvm.lifetime.end.p0(i64 8, ptr nonnull %7) #12
  call void @llvm.lifetime.end.p0(i64 8, ptr nonnull %6) #12
  call void @llvm.lifetime.end.p0(i64 4, ptr nonnull %5) #12
  call void @llvm.lifetime.end.p0(i64 8, ptr nonnull %4) #12
  ret i32 %.049
}